; Function Attrs: mustprogress uwtable
define void @_ZN6casadi4Opti16update_user_dictERKSt6vectorINS_2MXESaIS2_EERKSt3mapINSt7__cxx1112basic_stringIcSt11char_traitsIcESaIcEEENS_11GenericTypeESt4lessISD_ESaISt4pairIKSD_SE_EEE(ptr noundef nonnull align 8 dereferenceable(8) %0, ptr nocapture noundef nonnull readonly align 8 dereferenceable(24) %1, ptr noundef nonnull align 8 dereferenceable(48) %2) local_unnamed_addr #3 align 2 {
  %4 = load ptr, ptr %1, align 8
  %5 = getelementptr inbounds i8, ptr %1, i64 8
  %6 = load ptr, ptr %5, align 8
  %.not9 = icmp eq ptr %4, %6
  br i1 %.not9, label %._crit_edge, label %.lr.ph

.lr.ph:                                           ; preds = %3, %.lr.ph
  %.sroa.06.010 = phi ptr [ %7, %.lr.ph ], [ %4, %3 ]
  tail call void @_ZN6casadi4Opti16update_user_dictERKNS_2MXERKSt3mapINSt7__cxx1112basic_stringIcSt11char_traitsIcESaIcEEENS_11GenericTypeESt4lessISA_ESaISt4pairIKSA_SB_EEE(ptr noundef nonnull align 8 dereferenceable(8) %0, ptr noundef nonnull align 8 dereferenceable(8) %.sroa.06.010, ptr noundef nonnull align 8 dereferenceable(48) %2)
  %7 = getelementptr inbounds i8, ptr %.sroa.06.010, i64 8
  %.not = icmp eq ptr %7, %6
  br i1 %.not, label %._crit_edge, label %.lr.ph

._crit_edge:                                      ; preds = %.lr.ph, %3
  ret void
}